ccopy_reg
_reconstructor
p0
(csknn.mlp
Regressor
p1
c__builtin__
object
p2
Ntp3
Rp4
(dp5
S'loss_type'
p6
NsS'dropout_rate'
p7
NsS'verbose'
p8
NsS'valid_set'
p9
NsS'regularize'
p10
NsS'learning_rate'
p11
F0.02
sS'batch_size'
p12
I1
sS'valid_size'
p13
F0.0
sS'learning_momentum'
p14
F0.9
sS'normalize'
p15
NsS'learning_rule'
p16
Vsgd
p17
sS'weight_decay'
p18
NsS'auto_enabled'
p19
(dp20
sS'layers'
p21
(lp22
g0
(csknn.nn
Layer
p23
g2
Ntp24
Rp25
(dp26
g15
NsS'name'
p27
Vhidden0
p28
sS'frozen'
p29
I00
sS'dropout'
p30
NsS'units'
p31
I50
sg18
NsS'type'
p32
S'Linear'
p33
sbag0
(g23
g2
Ntp34
Rp35
(dp36
g15
Nsg27
Voutput
p37
sg29
I00
sg30
Nsg31
Nsg18
Nsg32
g33
sbasS'n_iter'
p38
I10
sS'f_stable'
p39
F0.001
sS'n_stable'
p40
I10
sS'callback'
p41
NsS'random_state'
p42
NsS'weights'
p43
NsS'debug'
p44
I00
sb.